target datalayout = "e-m:e-p270:32:32-p271:32:32-p272:64:64-i64:64-i128:128-f80:128-n8:16:32:64-S128"
target triple = "x86_64-pc-linux-gnu"

%struct.SwsSlice = type { i32, i32, i32, i32, i32, i32, [4 x %struct.SwsPlane] }
%struct.SwsPlane = type { i32, i32, i32, ptr, ptr }
%struct.SwsInternal = type { %struct.SwsContext, ptr, ptr, ptr, ptr, i32, [2 x ptr], i32, i32, ptr, i32, i32, i32, i32, i32, i32, i32, i32, i32, i32, i32, i32, i32, i32, i32, i32, i32, i32, ptr, ptr, %struct.RangeList, [3 x ptr], [2 x [4 x i32]], [2 x [4 x ptr]], i32, double, i32, ptr, ptr, i32, [2 x i32], i32, ptr, ptr, [256 x i32], [256 x i32], [256 x float], i32, i32, ptr, i32, ptr, ptr, ptr, ptr, ptr, ptr, ptr, ptr, i32, i32, i32, i32, i32, i32, ptr, ptr, i32, i32, i32, ptr, [8 x i8], [1280 x i32], [1280 x ptr], [1280 x ptr], [1280 x ptr], [176 x i32], [4 x ptr], i32, i32, i32, [4 x i32], [4 x i32], i32, i32, i32, i32, i32, i32, i32, i32, i32, i32, i64, i64, i64, i64, i64, i64, i64, i64, i64, i64, i64, [1024 x i32], [1024 x i32], i32, i64, i64, i64, i64, i64, [1024 x i32], i64, i64, [8 x i16], [8 x i32], ptr, ptr, i32, ptr, ptr, ptr, ptr, [3 x [4 x i16]], [3 x [4 x i16]], ptr, ptr, ptr, ptr, ptr, ptr, ptr, ptr, ptr, ptr, ptr, ptr, ptr, ptr, ptr, ptr, ptr, ptr, ptr, ptr, i32, i32, i64, i64, i32, ptr, i32, ptr, i32, i32, i32, i32, i32, ptr }
%struct.SwsContext = type { ptr, ptr, i32, [2 x double], i32, i32, i32, i32, i32, i32, i32, i32, i32, i32, i32, i32, i32, i32, i32, i32, i32 }
%struct.RangeList = type { ptr, i32, i32 }
%struct.SwsFilterDescriptor = type { ptr, ptr, i32, ptr, ptr }

; Function Attrs: nounwind uwtable
define internal void @free_lines(ptr noundef %0) #0 {
  %2 = alloca ptr, align 8
  %3 = alloca i32, align 4
  %4 = alloca i32, align 4
  %5 = alloca i32, align 4
  store ptr %0, ptr %2, align 8, !tbaa !4
  call void @llvm.lifetime.start.p0(i64 4, ptr %3) #7
  store i32 0, ptr %3, align 4, !tbaa !9
  br label %6

6:                                                ; preds = %54, %1
  %7 = load i32, ptr %3, align 4, !tbaa !9
  %8 = icmp slt i32 %7, 2
  br i1 %8, label %9, label %57

9:                                                ; preds = %6
  call void @llvm.lifetime.start.p0(i64 4, ptr %4) #7
  %10 = load ptr, ptr %2, align 8, !tbaa !4
  %11 = getelementptr inbounds nuw %struct.SwsSlice, ptr %10, i32 0, i32 6
  %12 = load i32, ptr %3, align 4, !tbaa !9
  %13 = sext i32 %12 to i64
  %14 = getelementptr inbounds [4 x %struct.SwsPlane], ptr %11, i64 0, i64 %13
  %15 = getelementptr inbounds nuw %struct.SwsPlane, ptr %14, i32 0, i32 0
  %16 = load i32, ptr %15, align 8, !tbaa !11
  store i32 %16, ptr %4, align 4, !tbaa !9
  call void @llvm.lifetime.start.p0(i64 4, ptr %5) #7
  store i32 0, ptr %5, align 4, !tbaa !9
  br label %17

17:                                               ; preds = %50, %9
  %18 = load i32, ptr %5, align 4, !tbaa !9
  %19 = load i32, ptr %4, align 4, !tbaa !9
  %20 = icmp slt i32 %18, %19
  br i1 %20, label %21, label %53

21:                                               ; preds = %17
  %22 = load ptr, ptr %2, align 8, !tbaa !4
  %23 = getelementptr inbounds nuw %struct.SwsSlice, ptr %22, i32 0, i32 6
  %24 = load i32, ptr %3, align 4, !tbaa !9
  %25 = sext i32 %24 to i64
  %26 = getelementptr inbounds [4 x %struct.SwsPlane], ptr %23, i64 0, i64 %25
  %27 = getelementptr inbounds nuw %struct.SwsPlane, ptr %26, i32 0, i32 3
  %28 = load ptr, ptr %27, align 8, !tbaa !27
  %29 = load i32, ptr %5, align 4, !tbaa !9
  %30 = sext i32 %29 to i64
  %31 = getelementptr inbounds ptr, ptr %28, i64 %30
  call void @av_freep(ptr noundef %31)
  %32 = load ptr, ptr %2, align 8, !tbaa !4
  %33 = getelementptr inbounds nuw %struct.SwsSlice, ptr %32, i32 0, i32 3
  %34 = load i32, ptr %33, align 4, !tbaa !103
  %35 = icmp ne i32 %34, 0
  br i1 %35, label %36, label %49

36:                                               ; preds = %21
  %37 = load ptr, ptr %2, align 8, !tbaa !4
  %38 = getelementptr inbounds nuw %struct.SwsSlice, ptr %37, i32 0, i32 6
  %39 = load i32, ptr %3, align 4, !tbaa !9
  %40 = sext i32 %39 to i64
  %41 = getelementptr inbounds [4 x %struct.SwsPlane], ptr %38, i64 0, i64 %40
  %42 = getelementptr inbounds nuw %struct.SwsPlane, ptr %41, i32 0, i32 3
  %43 = load ptr, ptr %42, align 8, !tbaa !27
  %44 = load i32, ptr %5, align 4, !tbaa !9
  %45 = load i32, ptr %4, align 4, !tbaa !9
  %46 = add nsw i32 %44, %45
  %47 = sext i32 %46 to i64
  %48 = getelementptr inbounds ptr, ptr %43, i64 %47
  store ptr null, ptr %48, align 8, !tbaa !25
  br label %49

49:                                               ; preds = %36, %21
  br label %50

50:                                               ; preds = %49
  %51 = load i32, ptr %5, align 4, !tbaa !9
  %52 = add nsw i32 %51, 1
  store i32 %52, ptr %5, align 4, !tbaa !9
  br label %17, !llvm.loop !118

53:                                               ; preds = %17
  call void @llvm.lifetime.end.p0(i64 4, ptr %5) #7
  call void @llvm.lifetime.end.p0(i64 4, ptr %4) #7
  br label %54

54:                                               ; preds = %53
  %55 = load i32, ptr %3, align 4, !tbaa !9
  %56 = add nsw i32 %55, 1
  store i32 %56, ptr %3, align 4, !tbaa !9
  br label %6, !llvm.loop !119

57:                                               ; preds = %6
  store i32 0, ptr %3, align 4, !tbaa !9
  br label %58

58:                                               ; preds = %85, %57
  %59 = load i32, ptr %3, align 4, !tbaa !9
  %60 = icmp slt i32 %59, 4
  br i1 %60, label %61, label %88

61:                                               ; preds = %58
  %62 = load ptr, ptr %2, align 8, !tbaa !4
  %63 = getelementptr inbounds nuw %struct.SwsSlice, ptr %62, i32 0, i32 6
  %64 = load i32, ptr %3, align 4, !tbaa !9
  %65 = sext i32 %64 to i64
  %66 = getelementptr inbounds [4 x %struct.SwsPlane], ptr %63, i64 0, i64 %65
  %67 = getelementptr inbounds nuw %struct.SwsPlane, ptr %66, i32 0, i32 3
  %68 = load ptr, ptr %67, align 8, !tbaa !27
  %69 = load ptr, ptr %2, align 8, !tbaa !4
  %70 = getelementptr inbounds nuw %struct.SwsSlice, ptr %69, i32 0, i32 6
  %71 = load i32, ptr %3, align 4, !tbaa !9
  %72 = sext i32 %71 to i64
  %73 = getelementptr inbounds [4 x %struct.SwsPlane], ptr %70, i64 0, i64 %72
  %74 = getelementptr inbounds nuw %struct.SwsPlane, ptr %73, i32 0, i32 0
  %75 = load i32, ptr %74, align 8, !tbaa !11
  %76 = sext i32 %75 to i64
  %77 = mul i64 8, %76
  %78 = load ptr, ptr %2, align 8, !tbaa !4
  %79 = getelementptr inbounds nuw %struct.SwsSlice, ptr %78, i32 0, i32 3
  %80 = load i32, ptr %79, align 4, !tbaa !103
  %81 = icmp ne i32 %80, 0
  %82 = select i1 %81, i32 3, i32 1
  %83 = sext i32 %82 to i64
  %84 = mul i64 %77, %83
  call void @llvm.memset.p0.i64(ptr align 8 %68, i8 0, i64 %84, i1 false)
  br label %85

85:                                               ; preds = %61
  %86 = load i32, ptr %3, align 4, !tbaa !9
  %87 = add nsw i32 %86, 1
  store i32 %87, ptr %3, align 4, !tbaa !9
  br label %58, !llvm.loop !120

88:                                               ; preds = %58
  %89 = load ptr, ptr %2, align 8, !tbaa !4
  %90 = getelementptr inbounds nuw %struct.SwsSlice, ptr %89, i32 0, i32 4
  store i32 0, ptr %90, align 8, !tbaa !104
  call void @llvm.lifetime.end.p0(i64 4, ptr %3) #7
  ret void
}

; Function Attrs: nounwind uwtable
define internal void @free_slice(ptr noundef %0) #0 {
  %2 = alloca ptr, align 8
  %3 = alloca i32, align 4
  store ptr %0, ptr %2, align 8, !tbaa !4
  call void @llvm.lifetime.start.p0(i64 4, ptr %3) #7
  %4 = load ptr, ptr %2, align 8, !tbaa !4
  %5 = icmp ne ptr %4, null
  br i1 %5, label %6, label %34

6:                                                ; preds = %1
  %7 = load ptr, ptr %2, align 8, !tbaa !4
  %8 = getelementptr inbounds nuw %struct.SwsSlice, ptr %7, i32 0, i32 4
  %9 = load i32, ptr %8, align 8, !tbaa !104
  %10 = icmp ne i32 %9, 0
  br i1 %10, label %11, label %13

11:                                               ; preds = %6
  %12 = load ptr, ptr %2, align 8, !tbaa !4
  call void @free_lines(ptr noundef %12)
  br label %13

13:                                               ; preds = %11, %6
  store i32 0, ptr %3, align 4, !tbaa !9
  br label %14

14:                                               ; preds = %30, %13
  %15 = load i32, ptr %3, align 4, !tbaa !9
  %16 = icmp slt i32 %15, 4
  br i1 %16, label %17, label %33

17:                                               ; preds = %14
  %18 = load ptr, ptr %2, align 8, !tbaa !4
  %19 = getelementptr inbounds nuw %struct.SwsSlice, ptr %18, i32 0, i32 6
  %20 = load i32, ptr %3, align 4, !tbaa !9
  %21 = sext i32 %20 to i64
  %22 = getelementptr inbounds [4 x %struct.SwsPlane], ptr %19, i64 0, i64 %21
  %23 = getelementptr inbounds nuw %struct.SwsPlane, ptr %22, i32 0, i32 3
  call void @av_freep(ptr noundef %23)
  %24 = load ptr, ptr %2, align 8, !tbaa !4
  %25 = getelementptr inbounds nuw %struct.SwsSlice, ptr %24, i32 0, i32 6
  %26 = load i32, ptr %3, align 4, !tbaa !9
  %27 = sext i32 %26 to i64
  %28 = getelementptr inbounds [4 x %struct.SwsPlane], ptr %25, i64 0, i64 %27
  %29 = getelementptr inbounds nuw %struct.SwsPlane, ptr %28, i32 0, i32 4
  store ptr null, ptr %29, align 8, !tbaa !105
  br label %30

30:                                               ; preds = %17
  %31 = load i32, ptr %3, align 4, !tbaa !9
  %32 = add nsw i32 %31, 1
  store i32 %32, ptr %3, align 4, !tbaa !9
  br label %14, !llvm.loop !117

33:                                               ; preds = %14
  br label %34

34:                                               ; preds = %33, %1
  call void @llvm.lifetime.end.p0(i64 4, ptr %3) #7
  ret void
}

; Function Attrs: nounwind uwtable
define i32 @ff_free_filters(ptr noundef %0) #0 {
  %2 = alloca ptr, align 8
  %3 = alloca i32, align 4
  store ptr %0, ptr %2, align 8, !tbaa !31
  call void @llvm.lifetime.start.p0(i64 4, ptr %3) #7
  %4 = load ptr, ptr %2, align 8, !tbaa !31
  %5 = getelementptr inbounds nuw %struct.SwsInternal, ptr %4, i32 0, i32 43
  %6 = load ptr, ptr %5, align 8, !tbaa !64
  %7 = icmp ne ptr %6, null
  br i1 %7, label %8, label %29

8:                                                ; preds = %1
  store i32 0, ptr %3, align 4, !tbaa !9
  br label %9

9:                                                ; preds = %23, %8
  %10 = load i32, ptr %3, align 4, !tbaa !9
  %11 = load ptr, ptr %2, align 8, !tbaa !31
  %12 = getelementptr inbounds nuw %struct.SwsInternal, ptr %11, i32 0, i32 39
  %13 = load i32, ptr %12, align 16, !tbaa !61
  %14 = icmp slt i32 %10, %13
  br i1 %14, label %15, label %26

15:                                               ; preds = %9
  %16 = load ptr, ptr %2, align 8, !tbaa !31
  %17 = getelementptr inbounds nuw %struct.SwsInternal, ptr %16, i32 0, i32 43
  %18 = load ptr, ptr %17, align 8, !tbaa !64
  %19 = load i32, ptr %3, align 4, !tbaa !9
  %20 = sext i32 %19 to i64
  %21 = getelementptr inbounds %struct.SwsFilterDescriptor, ptr %18, i64 %20
  %22 = getelementptr inbounds nuw %struct.SwsFilterDescriptor, ptr %21, i32 0, i32 3
  call void @av_freep(ptr noundef %22)
  br label %23

23:                                               ; preds = %15
  %24 = load i32, ptr %3, align 4, !tbaa !9
  %25 = add nsw i32 %24, 1
  store i32 %25, ptr %3, align 4, !tbaa !9
  br label %9, !llvm.loop !115

26:                                               ; preds = %9
  %27 = load ptr, ptr %2, align 8, !tbaa !31
  %28 = getelementptr inbounds nuw %struct.SwsInternal, ptr %27, i32 0, i32 43
  call void @av_freep(ptr noundef %28)
  br label %29

29:                                               ; preds = %26, %1
  %30 = load ptr, ptr %2, align 8, !tbaa !31
  %31 = getelementptr inbounds nuw %struct.SwsInternal, ptr %30, i32 0, i32 42
  %32 = load ptr, ptr %31, align 16, !tbaa !65
  %33 = icmp ne ptr %32, null
  br i1 %33, label %34, label %54

34:                                               ; preds = %29
  store i32 0, ptr %3, align 4, !tbaa !9
  br label %35

35:                                               ; preds = %48, %34
  %36 = load i32, ptr %3, align 4, !tbaa !9
  %37 = load ptr, ptr %2, align 8, !tbaa !31
  %38 = getelementptr inbounds nuw %struct.SwsInternal, ptr %37, i32 0, i32 41
  %39 = load i32, ptr %38, align 4, !tbaa !60
  %40 = icmp slt i32 %36, %39
  br i1 %40, label %41, label %51

41:                                               ; preds = %35
  %42 = load ptr, ptr %2, align 8, !tbaa !31
  %43 = getelementptr inbounds nuw %struct.SwsInternal, ptr %42, i32 0, i32 42
  %44 = load ptr, ptr %43, align 16, !tbaa !65
  %45 = load i32, ptr %3, align 4, !tbaa !9
  %46 = sext i32 %45 to i64
  %47 = getelementptr inbounds %struct.SwsSlice, ptr %44, i64 %46
  call void @free_slice(ptr noundef %47)
  br label %48

48:                                               ; preds = %41
  %49 = load i32, ptr %3, align 4, !tbaa !9
  %50 = add nsw i32 %49, 1
  store i32 %50, ptr %3, align 4, !tbaa !9
  br label %35, !llvm.loop !116

51:                                               ; preds = %35
  %52 = load ptr, ptr %2, align 8, !tbaa !31
  %53 = getelementptr inbounds nuw %struct.SwsInternal, ptr %52, i32 0, i32 42
  call void @av_freep(ptr noundef %53)
  br label %54

54:                                               ; preds = %51, %29
  %55 = load ptr, ptr %2, align 8, !tbaa !31
  %56 = getelementptr inbounds nuw %struct.SwsInternal, ptr %55, i32 0, i32 159
  call void @av_freep(ptr noundef %56)
  call void @llvm.lifetime.end.p0(i64 4, ptr %3) #7
  ret i32 0
}