; Function Attrs: nounwind uwtable
define noundef i32 @ff_free_filters(ptr noundef %0) local_unnamed_addr #3 {
  %2 = getelementptr inbounds nuw i8, ptr %0, i64 472
  %3 = load ptr, ptr %2, align 8, !tbaa !70
  %.not = icmp eq ptr %3, null
  br i1 %.not, label %12, label %.preheader15

.preheader15:                                     ; preds = %1
  %4 = getelementptr inbounds nuw i8, ptr %0, i64 448
  %5 = load i32, ptr %4, align 16, !tbaa !65
  %6 = icmp sgt i32 %5, 0
  br i1 %6, label %.lr.ph, label %._crit_edge

.lr.ph:                                           ; preds = %.preheader15, %.lr.ph
  %indvars.iv = phi i64 [ %indvars.iv.next, %.lr.ph ], [ 0, %.preheader15 ]
  %7 = load ptr, ptr %2, align 8, !tbaa !70
  %8 = getelementptr inbounds nuw %struct.SwsFilterDescriptor, ptr %7, i64 %indvars.iv, i32 3
  tail call void @av_freep(ptr noundef nonnull %8) #8
  %indvars.iv.next = add nuw nsw i64 %indvars.iv, 1
  %9 = load i32, ptr %4, align 16, !tbaa !65
  %10 = sext i32 %9 to i64
  %11 = icmp slt i64 %indvars.iv.next, %10
  br i1 %11, label %.lr.ph, label %._crit_edge, !llvm.loop !111

._crit_edge:                                      ; preds = %.lr.ph, %.preheader15
  tail call void @av_freep(ptr noundef nonnull %2) #8
  br label %12

12:                                               ; preds = %._crit_edge, %1
  %13 = getelementptr inbounds nuw i8, ptr %0, i64 464
  %14 = load ptr, ptr %13, align 16, !tbaa !71
  %.not14 = icmp eq ptr %14, null
  br i1 %.not14, label %61, label %.preheader

.preheader:                                       ; preds = %12
  %15 = getelementptr inbounds nuw i8, ptr %0, i64 460
  %16 = load i32, ptr %15, align 4, !tbaa !64
  %17 = icmp sgt i32 %16, 0
  br i1 %17, label %.lr.ph18.split, label %._crit_edge19

.lr.ph18.split:                                   ; preds = %.preheader, %free_slice.exit
  %18 = phi i32 [ %58, %free_slice.exit ], [ %16, %.preheader ]
  %indvars.iv22 = phi i64 [ %indvars.iv.next23, %free_slice.exit ], [ 0, %.preheader ]
  %19 = load ptr, ptr %13, align 16, !tbaa !71
  %20 = getelementptr inbounds nuw %struct.SwsSlice, ptr %19, i64 %indvars.iv22
  %.not.i = icmp eq ptr %19, null
  br i1 %.not.i, label %free_slice.exit, label %21

21:                                               ; preds = %.lr.ph18.split
  %22 = getelementptr inbounds nuw i8, ptr %20, i64 16
  %23 = load i32, ptr %22, align 8, !tbaa !79
  %.not9.i = icmp eq i32 %23, 0
  br i1 %.not9.i, label %52, label %24

24:                                               ; preds = %21
  %25 = getelementptr inbounds nuw i8, ptr %20, i64 24
  %26 = getelementptr inbounds nuw i8, ptr %20, i64 12
  br label %27

27:                                               ; preds = %._crit_edge.i.i, %24
  %28 = phi i1 [ true, %24 ], [ false, %._crit_edge.i.i ]
  %indvars.iv29.i.i = phi i64 [ 0, %24 ], [ 1, %._crit_edge.i.i ]
  %29 = getelementptr inbounds nuw [4 x %struct.SwsPlane], ptr %25, i64 0, i64 %indvars.iv29.i.i
  %30 = load i32, ptr %29, align 8, !tbaa !4
  %31 = icmp sgt i32 %30, 0
  br i1 %31, label %.lr.ph.i.i, label %._crit_edge.i.i

.lr.ph.i.i:                                       ; preds = %27
  %32 = getelementptr inbounds nuw i8, ptr %29, i64 16
  %33 = zext nneg i32 %30 to i64
  br label %34

34:                                               ; preds = %42, %.lr.ph.i.i
  %indvars.iv.i.i = phi i64 [ 0, %.lr.ph.i.i ], [ %indvars.iv.next.i.i, %42 ]
  %35 = load ptr, ptr %32, align 8, !tbaa !22
  %36 = getelementptr inbounds nuw ptr, ptr %35, i64 %indvars.iv.i.i
  tail call void @av_freep(ptr noundef %36) #8
  %37 = load i32, ptr %26, align 4, !tbaa !78
  %.not24.i.i = icmp eq i32 %37, 0
  br i1 %.not24.i.i, label %42, label %38

38:                                               ; preds = %34
  %39 = load ptr, ptr %32, align 8, !tbaa !22
  %40 = getelementptr inbounds nuw ptr, ptr %39, i64 %indvars.iv.i.i
  %41 = getelementptr inbounds nuw ptr, ptr %40, i64 %33
  store ptr null, ptr %41, align 8, !tbaa !20
  br label %42

42:                                               ; preds = %38, %34
  %indvars.iv.next.i.i = add nuw nsw i64 %indvars.iv.i.i, 1
  %exitcond.not.i.i = icmp eq i64 %indvars.iv.next.i.i, %33
  br i1 %exitcond.not.i.i, label %._crit_edge.i.i, label %34, !llvm.loop !106

._crit_edge.i.i:                                  ; preds = %42, %27
  br i1 %28, label %27, label %.preheader.i.i, !llvm.loop !107

.preheader.i.i:                                   ; preds = %._crit_edge.i.i, %.preheader.i.i
  %indvars.iv32.i.i = phi i64 [ %indvars.iv.next33.i.i, %.preheader.i.i ], [ 0, %._crit_edge.i.i ]
  %43 = getelementptr inbounds nuw [4 x %struct.SwsPlane], ptr %25, i64 0, i64 %indvars.iv32.i.i
  %44 = getelementptr inbounds nuw i8, ptr %43, i64 16
  %45 = load ptr, ptr %44, align 8, !tbaa !22
  %46 = load i32, ptr %43, align 8, !tbaa !4
  %47 = sext i32 %46 to i64
  %48 = shl nsw i64 %47, 3
  %49 = load i32, ptr %26, align 4, !tbaa !78
  %.not.i.i = icmp eq i32 %49, 0
  %50 = select i1 %.not.i.i, i64 1, i64 3
  %51 = mul nsw i64 %48, %50
  tail call void @llvm.memset.p0.i64(ptr align 8 %45, i8 0, i64 %51, i1 false)
  %indvars.iv.next33.i.i = add nuw nsw i64 %indvars.iv32.i.i, 1
  %exitcond35.not.i.i = icmp eq i64 %indvars.iv.next33.i.i, 4
  br i1 %exitcond35.not.i.i, label %free_lines.exit.i, label %.preheader.i.i, !llvm.loop !108

free_lines.exit.i:                                ; preds = %.preheader.i.i
  store i32 0, ptr %22, align 8, !tbaa !79
  br label %52

52:                                               ; preds = %free_lines.exit.i, %21
  %53 = getelementptr inbounds nuw i8, ptr %20, i64 24
  br label %54

54:                                               ; preds = %54, %52
  %indvars.iv.i = phi i64 [ 0, %52 ], [ %indvars.iv.next.i, %54 ]
  %55 = getelementptr inbounds nuw [4 x %struct.SwsPlane], ptr %53, i64 0, i64 %indvars.iv.i
  %56 = getelementptr inbounds nuw i8, ptr %55, i64 16
  tail call void @av_freep(ptr noundef nonnull %56) #8
  %57 = getelementptr inbounds nuw i8, ptr %55, i64 24
  store ptr null, ptr %57, align 8, !tbaa !80
  %indvars.iv.next.i = add nuw nsw i64 %indvars.iv.i, 1
  %exitcond.not.i = icmp eq i64 %indvars.iv.next.i, 4
  br i1 %exitcond.not.i, label %free_slice.exit.loopexit, label %54, !llvm.loop !112

free_slice.exit.loopexit:                         ; preds = %54
  %.pre = load i32, ptr %15, align 4, !tbaa !64
  br label %free_slice.exit

free_slice.exit:                                  ; preds = %free_slice.exit.loopexit, %.lr.ph18.split
  %58 = phi i32 [ %.pre, %free_slice.exit.loopexit ], [ %18, %.lr.ph18.split ]
  %indvars.iv.next23 = add nuw nsw i64 %indvars.iv22, 1
  %59 = sext i32 %58 to i64
  %60 = icmp slt i64 %indvars.iv.next23, %59
  br i1 %60, label %.lr.ph18.split, label %._crit_edge19, !llvm.loop !113

._crit_edge19:                                    ; preds = %free_slice.exit, %.preheader
  tail call void @av_freep(ptr noundef nonnull %13) #8
  br label %61

61:                                               ; preds = %._crit_edge19, %12
  %62 = getelementptr inbounds nuw i8, ptr %0, i64 53208
  tail call void @av_freep(ptr noundef nonnull %62) #8
  ret i32 0
}